target datalayout = "e-m:e-p270:32:32-p271:32:32-p272:64:64-i64:64-i128:128-f80:128-n8:16:32:64-S128"
target triple = "x86_64-pc-linux-gnu"

; Function Attrs: nounwind uwtable
define internal i64 @file_strncmp(ptr noundef %0, ptr noundef %1, i64 noundef %2, i64 noundef %3, i32 noundef %4) #0 {
  %6 = alloca ptr, align 8
  %7 = alloca ptr, align 8
  %8 = alloca i64, align 8
  %9 = alloca i64, align 8
  %10 = alloca i32, align 4
  %11 = alloca ptr, align 8
  %12 = alloca ptr, align 8
  %13 = alloca i32, align 4
  %14 = alloca ptr, align 8
  %15 = alloca i64, align 8
  %16 = alloca i32, align 4
  store ptr %0, ptr %6, align 8
  store ptr %1, ptr %7, align 8
  store i64 %2, ptr %8, align 8
  store i64 %3, ptr %9, align 8
  store i32 %4, ptr %10, align 4
  %17 = load ptr, ptr %6, align 8
  %18 = ptrtoint ptr %17 to i64
  %19 = inttoptr i64 %18 to ptr
  store ptr %19, ptr %11, align 8
  %20 = load ptr, ptr %7, align 8
  %21 = ptrtoint ptr %20 to i64
  %22 = inttoptr i64 %21 to ptr
  store ptr %22, ptr %12, align 8
  %23 = load i32, ptr %10, align 4
  %24 = and i32 %23, 3
  store i32 %24, ptr %13, align 4
  %25 = load ptr, ptr %12, align 8
  %26 = load i32, ptr %13, align 4
  %27 = icmp ne i32 %26, 0
  br i1 %27, label %28, label %30

28:                                               ; preds = %5
  %29 = load i64, ptr %9, align 8
  br label %32

30:                                               ; preds = %5
  %31 = load i64, ptr %8, align 8
  br label %32

32:                                               ; preds = %30, %28
  %33 = phi i64 [ %29, %28 ], [ %31, %30 ]
  %34 = getelementptr inbounds i8, ptr %25, i64 %33
  store ptr %34, ptr %14, align 8
  store i64 0, ptr %15, align 8
  %35 = load i64, ptr %8, align 8
  %36 = add i64 %35, 1
  store i64 %36, ptr %8, align 8
  %37 = load i32, ptr %10, align 4
  %38 = zext i32 %37 to i64
  %39 = icmp eq i64 0, %38
  br i1 %39, label %40, label %60

40:                                               ; preds = %32
  br label %41

41:                                               ; preds = %58, %40
  %42 = load i64, ptr %8, align 8
  %43 = add i64 %42, -1
  store i64 %43, ptr %8, align 8
  %44 = icmp ugt i64 %43, 0
  br i1 %44, label %45, label %59

45:                                               ; preds = %41
  %46 = load ptr, ptr %12, align 8
  %47 = getelementptr inbounds i8, ptr %46, i32 1
  store ptr %47, ptr %12, align 8
  %48 = load i8, ptr %46, align 1
  %49 = zext i8 %48 to i32
  %50 = load ptr, ptr %11, align 8
  %51 = getelementptr inbounds i8, ptr %50, i32 1
  store ptr %51, ptr %11, align 8
  %52 = load i8, ptr %50, align 1
  %53 = zext i8 %52 to i32
  %54 = sub nsw i32 %49, %53
  %55 = sext i32 %54 to i64
  store i64 %55, ptr %15, align 8
  %56 = icmp ne i64 %55, 0
  br i1 %56, label %57, label %58

57:                                               ; preds = %45
  br label %59

58:                                               ; preds = %45
  br label %41

59:                                               ; preds = %57, %41
  br label %299

60:                                               ; preds = %32
  br label %61

61:                                               ; preds = %268, %60
  %62 = load i64, ptr %8, align 8
  %63 = add i64 %62, -1
  store i64 %63, ptr %8, align 8
  %64 = icmp ugt i64 %63, 0
  br i1 %64, label %65, label %269

65:                                               ; preds = %61
  %66 = load ptr, ptr %12, align 8
  %67 = load ptr, ptr %14, align 8
  %68 = icmp uge ptr %66, %67
  br i1 %68, label %69, label %70

69:                                               ; preds = %65
  store i64 1, ptr %15, align 8
  br label %269

70:                                               ; preds = %65
  %71 = load i32, ptr %10, align 4
  %72 = and i32 %71, 4
  %73 = icmp ne i32 %72, 0
  br i1 %73, label %74, label %101

74:                                               ; preds = %70
  %75 = call ptr @__ctype_b_loc() #11
  %76 = load ptr, ptr %75, align 8
  %77 = load ptr, ptr %11, align 8
  %78 = load i8, ptr %77, align 1
  %79 = zext i8 %78 to i32
  %80 = sext i32 %79 to i64
  %81 = getelementptr inbounds i16, ptr %76, i64 %80
  %82 = load i16, ptr %81, align 2
  %83 = zext i16 %82 to i32
  %84 = and i32 %83, 512
  %85 = icmp ne i32 %84, 0
  br i1 %85, label %86, label %101

86:                                               ; preds = %74
  %87 = load ptr, ptr %12, align 8
  %88 = getelementptr inbounds i8, ptr %87, i32 1
  store ptr %88, ptr %12, align 8
  %89 = load i8, ptr %87, align 1
  %90 = zext i8 %89 to i32
  %91 = call i32 @tolower(i32 noundef %90) #12
  %92 = load ptr, ptr %11, align 8
  %93 = getelementptr inbounds i8, ptr %92, i32 1
  store ptr %93, ptr %11, align 8
  %94 = load i8, ptr %92, align 1
  %95 = zext i8 %94 to i32
  %96 = sub nsw i32 %91, %95
  %97 = sext i32 %96 to i64
  store i64 %97, ptr %15, align 8
  %98 = icmp ne i64 %97, 0
  br i1 %98, label %99, label %100

99:                                               ; preds = %86
  br label %269

100:                                              ; preds = %86
  br label %268

101:                                              ; preds = %74, %70
  %102 = load i32, ptr %10, align 4
  %103 = and i32 %102, 8
  %104 = icmp ne i32 %103, 0
  br i1 %104, label %105, label %132

105:                                              ; preds = %101
  %106 = call ptr @__ctype_b_loc() #11
  %107 = load ptr, ptr %106, align 8
  %108 = load ptr, ptr %11, align 8
  %109 = load i8, ptr %108, align 1
  %110 = zext i8 %109 to i32
  %111 = sext i32 %110 to i64
  %112 = getelementptr inbounds i16, ptr %107, i64 %111
  %113 = load i16, ptr %112, align 2
  %114 = zext i16 %113 to i32
  %115 = and i32 %114, 256
  %116 = icmp ne i32 %115, 0
  br i1 %116, label %117, label %132

117:                                              ; preds = %105
  %118 = load ptr, ptr %12, align 8
  %119 = getelementptr inbounds i8, ptr %118, i32 1
  store ptr %119, ptr %12, align 8
  %120 = load i8, ptr %118, align 1
  %121 = zext i8 %120 to i32
  %122 = call i32 @toupper(i32 noundef %121) #12
  %123 = load ptr, ptr %11, align 8
  %124 = getelementptr inbounds i8, ptr %123, i32 1
  store ptr %124, ptr %11, align 8
  %125 = load i8, ptr %123, align 1
  %126 = zext i8 %125 to i32
  %127 = sub nsw i32 %122, %126
  %128 = sext i32 %127 to i64
  store i64 %128, ptr %15, align 8
  %129 = icmp ne i64 %128, 0
  br i1 %129, label %130, label %131

130:                                              ; preds = %117
  br label %269

131:                                              ; preds = %117
  br label %267

132:                                              ; preds = %105, %101
  %133 = load i32, ptr %10, align 4
  %134 = and i32 %133, 1
  %135 = icmp ne i32 %134, 0
  br i1 %135, label %136, label %210

136:                                              ; preds = %132
  %137 = call ptr @__ctype_b_loc() #11
  %138 = load ptr, ptr %137, align 8
  %139 = load ptr, ptr %11, align 8
  %140 = load i8, ptr %139, align 1
  %141 = zext i8 %140 to i32
  %142 = sext i32 %141 to i64
  %143 = getelementptr inbounds i16, ptr %138, i64 %142
  %144 = load i16, ptr %143, align 2
  %145 = zext i16 %144 to i32
  %146 = and i32 %145, 8192
  %147 = icmp ne i32 %146, 0
  br i1 %147, label %148, label %210

148:                                              ; preds = %136
  store i32 0, ptr %16, align 4
  %149 = load ptr, ptr %11, align 8
  %150 = getelementptr inbounds i8, ptr %149, i32 1
  store ptr %150, ptr %11, align 8
  %151 = call ptr @__ctype_b_loc() #11
  %152 = load ptr, ptr %151, align 8
  %153 = load ptr, ptr %12, align 8
  %154 = getelementptr inbounds i8, ptr %153, i32 1
  store ptr %154, ptr %12, align 8
  %155 = load i8, ptr %153, align 1
  %156 = zext i8 %155 to i32
  %157 = sext i32 %156 to i64
  %158 = getelementptr inbounds i16, ptr %152, i64 %157
  %159 = load i16, ptr %158, align 2
  %160 = zext i16 %159 to i32
  %161 = and i32 %160, 8192
  %162 = icmp ne i32 %161, 0
  br i1 %162, label %163, label %208

163:                                              ; preds = %148
  %164 = call ptr @__ctype_b_loc() #11
  %165 = load ptr, ptr %164, align 8
  %166 = load ptr, ptr %11, align 8
  %167 = load i8, ptr %166, align 1
  %168 = zext i8 %167 to i32
  %169 = sext i32 %168 to i64
  %170 = getelementptr inbounds i16, ptr %165, i64 %169
  %171 = load i16, ptr %170, align 2
  %172 = zext i16 %171 to i32
  %173 = and i32 %172, 8192
  %174 = icmp ne i32 %173, 0
  br i1 %174, label %207, label %175

175:                                              ; preds = %163
  br label %176

176:                                              ; preds = %203, %175
  %177 = load i32, ptr %16, align 4
  %178 = add i32 %177, 1
  store i32 %178, ptr %16, align 4
  %179 = icmp ult i32 %177, 2048
  %180 = xor i1 %179, true
  %181 = xor i1 %180, true
  %182 = zext i1 %181 to i32
  %183 = sext i32 %182 to i64
  %184 = icmp ne i64 %183, 0
  br i1 %184, label %185, label %201

185:                                              ; preds = %176
  %186 = load ptr, ptr %12, align 8
  %187 = load ptr, ptr %14, align 8
  %188 = icmp ult ptr %186, %187
  br i1 %188, label %189, label %201

189:                                              ; preds = %185
  %190 = call ptr @__ctype_b_loc() #11
  %191 = load ptr, ptr %190, align 8
  %192 = load ptr, ptr %12, align 8
  %193 = load i8, ptr %192, align 1
  %194 = zext i8 %193 to i32
  %195 = sext i32 %194 to i64
  %196 = getelementptr inbounds i16, ptr %191, i64 %195
  %197 = load i16, ptr %196, align 2
  %198 = zext i16 %197 to i32
  %199 = and i32 %198, 8192
  %200 = icmp ne i32 %199, 0
  br label %201

201:                                              ; preds = %189, %185, %176
  %202 = phi i1 [ false, %185 ], [ false, %176 ], [ %200, %189 ]
  br i1 %202, label %203, label %206

203:                                              ; preds = %201
  %204 = load ptr, ptr %12, align 8
  %205 = getelementptr inbounds i8, ptr %204, i32 1
  store ptr %205, ptr %12, align 8
  br label %176

206:                                              ; preds = %201
  br label %207

207:                                              ; preds = %206, %163
  br label %209

208:                                              ; preds = %148
  store i64 1, ptr %15, align 8
  br label %269

209:                                              ; preds = %207
  br label %266

210:                                              ; preds = %136, %132
  %211 = load i32, ptr %10, align 4
  %212 = and i32 %211, 2
  %213 = icmp ne i32 %212, 0
  br i1 %213, label %214, label %251

214:                                              ; preds = %210
  %215 = call ptr @__ctype_b_loc() #11
  %216 = load ptr, ptr %215, align 8
  %217 = load ptr, ptr %11, align 8
  %218 = load i8, ptr %217, align 1
  %219 = zext i8 %218 to i32
  %220 = sext i32 %219 to i64
  %221 = getelementptr inbounds i16, ptr %216, i64 %220
  %222 = load i16, ptr %221, align 2
  %223 = zext i16 %222 to i32
  %224 = and i32 %223, 8192
  %225 = icmp ne i32 %224, 0
  br i1 %225, label %226, label %251

226:                                              ; preds = %214
  %227 = load ptr, ptr %11, align 8
  %228 = getelementptr inbounds i8, ptr %227, i32 1
  store ptr %228, ptr %11, align 8
  br label %229

229:                                              ; preds = %247, %226
  %230 = load ptr, ptr %12, align 8
  %231 = load ptr, ptr %14, align 8
  %232 = icmp ult ptr %230, %231
  br i1 %232, label %233, label %245

233:                                              ; preds = %229
  %234 = call ptr @__ctype_b_loc() #11
  %235 = load ptr, ptr %234, align 8
  %236 = load ptr, ptr %12, align 8
  %237 = load i8, ptr %236, align 1
  %238 = zext i8 %237 to i32
  %239 = sext i32 %238 to i64
  %240 = getelementptr inbounds i16, ptr %235, i64 %239
  %241 = load i16, ptr %240, align 2
  %242 = zext i16 %241 to i32
  %243 = and i32 %242, 8192
  %244 = icmp ne i32 %243, 0
  br label %245

245:                                              ; preds = %233, %229
  %246 = phi i1 [ false, %229 ], [ %244, %233 ]
  br i1 %246, label %247, label %250

247:                                              ; preds = %245
  %248 = load ptr, ptr %12, align 8
  %249 = getelementptr inbounds i8, ptr %248, i32 1
  store ptr %249, ptr %12, align 8
  br label %229

250:                                              ; preds = %245
  br label %265

251:                                              ; preds = %214, %210
  %252 = load ptr, ptr %12, align 8
  %253 = getelementptr inbounds i8, ptr %252, i32 1
  store ptr %253, ptr %12, align 8
  %254 = load i8, ptr %252, align 1
  %255 = zext i8 %254 to i32
  %256 = load ptr, ptr %11, align 8
  %257 = getelementptr inbounds i8, ptr %256, i32 1
  store ptr %257, ptr %11, align 8
  %258 = load i8, ptr %256, align 1
  %259 = zext i8 %258 to i32
  %260 = sub nsw i32 %255, %259
  %261 = sext i32 %260 to i64
  store i64 %261, ptr %15, align 8
  %262 = icmp ne i64 %261, 0
  br i1 %262, label %263, label %264

263:                                              ; preds = %251
  br label %269

264:                                              ; preds = %251
  br label %265

265:                                              ; preds = %264, %250
  br label %266

266:                                              ; preds = %265, %209
  br label %267

267:                                              ; preds = %266, %131
  br label %268

268:                                              ; preds = %267, %100
  br label %61

269:                                              ; preds = %263, %208, %130, %99, %69, %61
  %270 = load i64, ptr %8, align 8
  %271 = icmp eq i64 %270, 0
  br i1 %271, label %272, label %298

272:                                              ; preds = %269
  %273 = load i64, ptr %15, align 8
  %274 = icmp eq i64 %273, 0
  br i1 %274, label %275, label %298

275:                                              ; preds = %272
  %276 = load i32, ptr %10, align 4
  %277 = and i32 %276, 16384
  %278 = icmp ne i32 %277, 0
  br i1 %278, label %279, label %298

279:                                              ; preds = %275
  %280 = load ptr, ptr %12, align 8
  %281 = load i8, ptr %280, align 1
  %282 = zext i8 %281 to i32
  %283 = icmp ne i32 %282, 0
  br i1 %283, label %284, label %297

284:                                              ; preds = %279
  %285 = call ptr @__ctype_b_loc() #11
  %286 = load ptr, ptr %285, align 8
  %287 = load ptr, ptr %12, align 8
  %288 = load i8, ptr %287, align 1
  %289 = zext i8 %288 to i32
  %290 = sext i32 %289 to i64
  %291 = getelementptr inbounds i16, ptr %286, i64 %290
  %292 = load i16, ptr %291, align 2
  %293 = zext i16 %292 to i32
  %294 = and i32 %293, 8192
  %295 = icmp ne i32 %294, 0
  br i1 %295, label %297, label %296

296:                                              ; preds = %284
  store i64 1, ptr %15, align 8
  br label %297

297:                                              ; preds = %296, %284, %279
  br label %298

298:                                              ; preds = %297, %275, %272, %269
  br label %299

299:                                              ; preds = %298, %59
  %300 = load i64, ptr %15, align 8
  ret i64 %300
}