; Function Attrs: nofree nounwind memory(read) uwtable
define internal fastcc i64 @file_strncmp(ptr nocapture noundef readonly %0, ptr noundef readonly %1, i64 noundef %2, i64 noundef %3, i32 noundef %4) unnamed_addr #12 {
  %6 = and i32 %4, 3
  %.not = icmp eq i32 %6, 0
  %7 = select i1 %.not, i64 %2, i64 %3
  %8 = getelementptr inbounds i8, ptr %1, i64 %7
  %9 = icmp eq i32 %4, 0
  br i1 %9, label %.preheader.preheader, label %.preheader101

.preheader.preheader:                             ; preds = %5
  %10 = add nuw nsw i64 %2, 1
  br label %.preheader

.preheader101:                                    ; preds = %5
  %.not73125 = icmp eq i64 %2, 0
  br i1 %.not73125, label %._crit_edge, label %.lr.ph128

.lr.ph128:                                        ; preds = %.preheader101
  %11 = and i32 %4, 4
  %.not75 = icmp eq i32 %11, 0
  %12 = and i32 %4, 8
  %.not77 = icmp eq i32 %12, 0
  %13 = and i32 %4, 1
  %.not79 = icmp eq i32 %13, 0
  %14 = and i32 %4, 2
  %.not81 = icmp eq i32 %14, 0
  br label %24

.preheader:                                       ; preds = %.preheader.preheader, %16
  %.056 = phi ptr [ %17, %16 ], [ %1, %.preheader.preheader ]
  %.053 = phi ptr [ %20, %16 ], [ %0, %.preheader.preheader ]
  %.051 = phi i64 [ %15, %16 ], [ %10, %.preheader.preheader ]
  %15 = add nsw i64 %.051, -1
  %.not93 = icmp eq i64 %15, 0
  br i1 %.not93, label %.thread, label %16

16:                                               ; preds = %.preheader
  %17 = getelementptr inbounds i8, ptr %.056, i64 1
  %18 = load i8, ptr %.056, align 1
  %19 = zext i8 %18 to i64
  %20 = getelementptr inbounds i8, ptr %.053, i64 1
  %21 = load i8, ptr %.053, align 1
  %22 = zext i8 %21 to i64
  %23 = sub nsw i64 %19, %22
  %.not94 = icmp eq i64 %23, 0
  br i1 %.not94, label %.preheader, label %.thread

24:                                               ; preds = %.lr.ph128, %.critedge
  %25 = phi i64 [ %2, %.lr.ph128 ], [ %113, %.critedge ]
  %.154127 = phi ptr [ %0, %.lr.ph128 ], [ %.255, %.critedge ]
  %.157126 = phi ptr [ %1, %.lr.ph128 ], [ %.460, %.critedge ]
  %.not74 = icmp ult ptr %.157126, %8
  br i1 %.not74, label %26, label %.thread

26:                                               ; preds = %24
  %.pre.pre.pre.pre = load i8, ptr %.154127, align 1
  br i1 %.not75, label %41, label %27

27:                                               ; preds = %26
  %28 = tail call ptr @__ctype_b_loc() #24
  %29 = load ptr, ptr %28, align 8
  %30 = zext i8 %.pre.pre.pre.pre to i64
  %31 = getelementptr inbounds i16, ptr %29, i64 %30
  %32 = load i16, ptr %31, align 2
  %33 = and i16 %32, 512
  %.not76 = icmp eq i16 %33, 0
  br i1 %.not76, label %41, label %34

34:                                               ; preds = %27
  %35 = zext i8 %.pre.pre.pre.pre to i32
  %36 = getelementptr inbounds i8, ptr %.157126, i64 1
  %37 = load i8, ptr %.157126, align 1
  %38 = zext i8 %37 to i32
  %39 = tail call i32 @tolower(i32 noundef %38) #25
  %40 = getelementptr inbounds i8, ptr %.154127, i64 1
  %.not89 = icmp eq i32 %39, %35
  br i1 %.not89, label %.critedge, label %.thread.loopexit102.split.loop.exit119

41:                                               ; preds = %27, %26
  br i1 %.not77, label %56, label %42

42:                                               ; preds = %41
  %43 = tail call ptr @__ctype_b_loc() #24
  %44 = load ptr, ptr %43, align 8
  %45 = zext i8 %.pre.pre.pre.pre to i64
  %46 = getelementptr inbounds i16, ptr %44, i64 %45
  %47 = load i16, ptr %46, align 2
  %48 = and i16 %47, 256
  %.not78 = icmp eq i16 %48, 0
  br i1 %.not78, label %56, label %49

49:                                               ; preds = %42
  %50 = zext i8 %.pre.pre.pre.pre to i32
  %51 = getelementptr inbounds i8, ptr %.157126, i64 1
  %52 = load i8, ptr %.157126, align 1
  %53 = zext i8 %52 to i32
  %54 = tail call i32 @toupper(i32 noundef %53) #25
  %55 = getelementptr inbounds i8, ptr %.154127, i64 1
  %.not88 = icmp eq i32 %54, %50
  br i1 %.not88, label %.critedge, label %.thread.loopexit102.split.loop.exit117

56:                                               ; preds = %42, %41
  br i1 %.not79, label %90, label %57

57:                                               ; preds = %56
  %58 = tail call ptr @__ctype_b_loc() #24
  %59 = load ptr, ptr %58, align 8
  %60 = zext i8 %.pre.pre.pre.pre to i64
  %61 = getelementptr inbounds i16, ptr %59, i64 %60
  %62 = load i16, ptr %61, align 2
  %63 = and i16 %62, 8192
  %.not80 = icmp eq i16 %63, 0
  br i1 %.not80, label %90, label %64

64:                                               ; preds = %57
  %65 = getelementptr inbounds i8, ptr %.154127, i64 1
  %66 = load i8, ptr %.157126, align 1
  %67 = zext i8 %66 to i64
  %68 = getelementptr inbounds i16, ptr %59, i64 %67
  %69 = load i16, ptr %68, align 2
  %70 = and i16 %69, 8192
  %.not85 = icmp eq i16 %70, 0
  br i1 %.not85, label %.thread, label %71

71:                                               ; preds = %64
  %72 = getelementptr inbounds i8, ptr %.157126, i64 1
  %73 = load i8, ptr %65, align 1
  %74 = zext i8 %73 to i64
  %75 = getelementptr inbounds i16, ptr %59, i64 %74
  %76 = load i16, ptr %75, align 2
  %77 = and i16 %76, 8192
  %.not86 = icmp eq i16 %77, 0
  %78 = icmp ult ptr %72, %8
  %or.cond = select i1 %.not86, i1 %78, i1 false
  br i1 %or.cond, label %.lr.ph, label %.critedge

.lr.ph:                                           ; preds = %71, %85
  %79 = phi i32 [ %87, %85 ], [ 1, %71 ]
  %.258105 = phi ptr [ %86, %85 ], [ %72, %71 ]
  %80 = load i8, ptr %.258105, align 1
  %81 = zext i8 %80 to i64
  %82 = getelementptr inbounds i16, ptr %59, i64 %81
  %83 = load i16, ptr %82, align 2
  %84 = and i16 %83, 8192
  %.not87 = icmp eq i16 %84, 0
  br i1 %.not87, label %.critedge, label %85

85:                                               ; preds = %.lr.ph
  %86 = getelementptr inbounds i8, ptr %.258105, i64 1
  %87 = add nuw nsw i32 %79, 1
  %88 = icmp ult i32 %79, 2048
  %89 = icmp ult ptr %86, %8
  %or.cond95 = select i1 %88, i1 %89, i1 false
  br i1 %or.cond95, label %.lr.ph, label %.critedge

90:                                               ; preds = %57, %56
  br i1 %.not81, label %._crit_edge137, label %91

._crit_edge137:                                   ; preds = %90
  %.pre = zext i8 %.pre.pre.pre.pre to i64
  br label %107

91:                                               ; preds = %90
  %92 = tail call ptr @__ctype_b_loc() #24
  %93 = load ptr, ptr %92, align 8
  %94 = zext i8 %.pre.pre.pre.pre to i64
  %95 = getelementptr inbounds i16, ptr %93, i64 %94
  %96 = load i16, ptr %95, align 2
  %97 = and i16 %96, 8192
  %.not82 = icmp eq i16 %97, 0
  br i1 %.not82, label %107, label %.lr.ph109.preheader

.lr.ph109.preheader:                              ; preds = %91
  %98 = getelementptr inbounds i8, ptr %.154127, i64 1
  br label %.lr.ph109

.lr.ph109:                                        ; preds = %.lr.ph109.preheader, %104
  %.359108 = phi ptr [ %105, %104 ], [ %.157126, %.lr.ph109.preheader ]
  %99 = load i8, ptr %.359108, align 1
  %100 = zext i8 %99 to i64
  %101 = getelementptr inbounds i16, ptr %93, i64 %100
  %102 = load i16, ptr %101, align 2
  %103 = and i16 %102, 8192
  %.not84 = icmp eq i16 %103, 0
  br i1 %.not84, label %.critedge, label %104

104:                                              ; preds = %.lr.ph109
  %105 = getelementptr inbounds i8, ptr %.359108, i64 1
  %106 = icmp ult ptr %105, %8
  br i1 %106, label %.lr.ph109, label %.critedge

107:                                              ; preds = %._crit_edge137, %91
  %.pre-phi = phi i64 [ %.pre, %._crit_edge137 ], [ %94, %91 ]
  %108 = getelementptr inbounds i8, ptr %.157126, i64 1
  %109 = load i8, ptr %.157126, align 1
  %110 = zext i8 %109 to i64
  %111 = getelementptr inbounds i8, ptr %.154127, i64 1
  %112 = sub nsw i64 %110, %.pre-phi
  %.not83 = icmp eq i64 %112, 0
  br i1 %.not83, label %.critedge, label %.thread

.critedge:                                        ; preds = %85, %.lr.ph, %.lr.ph109, %104, %49, %107, %71, %34
  %.460 = phi ptr [ %36, %34 ], [ %51, %49 ], [ %72, %71 ], [ %108, %107 ], [ %.359108, %.lr.ph109 ], [ %105, %104 ], [ %86, %85 ], [ %.258105, %.lr.ph ]
  %.255 = phi ptr [ %40, %34 ], [ %55, %49 ], [ %65, %71 ], [ %111, %107 ], [ %98, %104 ], [ %98, %.lr.ph109 ], [ %65, %.lr.ph ], [ %65, %85 ]
  %113 = add nsw i64 %25, -1
  %.not73 = icmp eq i64 %113, 0
  br i1 %.not73, label %._crit_edge, label %24

._crit_edge:                                      ; preds = %.critedge, %.preheader101
  %.157.lcssa = phi ptr [ %1, %.preheader101 ], [ %.460, %.critedge ]
  %114 = and i32 %4, 16384
  %.not90 = icmp eq i32 %114, 0
  br i1 %.not90, label %.thread, label %115

115:                                              ; preds = %._crit_edge
  %116 = load i8, ptr %.157.lcssa, align 1
  %.not91 = icmp eq i8 %116, 0
  br i1 %.not91, label %.thread, label %117

117:                                              ; preds = %115
  %118 = tail call ptr @__ctype_b_loc() #24
  %119 = load ptr, ptr %118, align 8
  %120 = zext i8 %116 to i64
  %121 = getelementptr inbounds i16, ptr %119, i64 %120
  %122 = load i16, ptr %121, align 2
  %123 = and i16 %122, 8192
  %.not92 = icmp eq i16 %123, 0
  %spec.select = zext i1 %.not92 to i64
  br label %.thread

.thread.loopexit102.split.loop.exit117:           ; preds = %49
  %124 = sub nsw i32 %54, %50
  %125 = sext i32 %124 to i64
  br label %.thread

.thread.loopexit102.split.loop.exit119:           ; preds = %34
  %126 = sub nsw i32 %39, %35
  %127 = sext i32 %126 to i64
  br label %.thread

.thread:                                          ; preds = %64, %24, %107, %.preheader, %16, %.thread.loopexit102.split.loop.exit117, %.thread.loopexit102.split.loop.exit119, %117, %._crit_edge, %115
  %.4 = phi i64 [ 0, %115 ], [ 0, %._crit_edge ], [ %spec.select, %117 ], [ %125, %.thread.loopexit102.split.loop.exit117 ], [ %127, %.thread.loopexit102.split.loop.exit119 ], [ 0, %.preheader ], [ %23, %16 ], [ 1, %64 ], [ 1, %24 ], [ %112, %107 ]
  ret i64 %.4
}